target datalayout = "e-m:e-p270:32:32-p271:32:32-p272:64:64-i64:64-i128:128-f80:128-n8:16:32:64-S128"
target triple = "x86_64-pc-linux-gnu"

%struct._object = type { %union.anon, ptr }
%union.anon = type { i64 }
%struct.classmethod = type { %struct._object, ptr, ptr }

@PyExc_RuntimeError = external global ptr, align 8
@.str.75 = private unnamed_addr constant [33 x i8] c"uninitialized classmethod object\00", align 1

; Function Attrs: inlinehint nounwind uwtable
define internal ptr @_Py_TYPE(ptr noundef %0) #2 {
  %2 = alloca ptr, align 8
  store ptr %0, ptr %2, align 8, !tbaa !96
  %3 = load ptr, ptr %2, align 8, !tbaa !96
  %4 = getelementptr inbounds nuw %struct._object, ptr %3, i32 0, i32 1
  %5 = load ptr, ptr %4, align 8, !tbaa !147
  ret ptr %5
}

; Function Attrs: nounwind uwtable
define internal ptr @cm_descr_get(ptr noundef %0, ptr noundef %1, ptr noundef %2) #0 {
  %4 = alloca ptr, align 8
  %5 = alloca ptr, align 8
  %6 = alloca ptr, align 8
  %7 = alloca ptr, align 8
  %8 = alloca ptr, align 8
  %9 = alloca i32, align 4
  store ptr %0, ptr %5, align 8, !tbaa !96
  store ptr %1, ptr %6, align 8, !tbaa !96
  store ptr %2, ptr %7, align 8, !tbaa !96
  call void @llvm.lifetime.start.p0(i64 8, ptr %8) #6
  %10 = load ptr, ptr %5, align 8, !tbaa !96
  store ptr %10, ptr %8, align 8, !tbaa !4
  %11 = load ptr, ptr %8, align 8, !tbaa !4
  %12 = getelementptr inbounds nuw %struct.classmethod, ptr %11, i32 0, i32 1
  %13 = load ptr, ptr %12, align 8, !tbaa !157
  %14 = icmp eq ptr %13, null
  br i1 %14, label %15, label %17

15:                                               ; preds = %3
  %16 = load ptr, ptr @PyExc_RuntimeError, align 8, !tbaa !96
  call void @PyErr_SetString(ptr noundef %16, ptr noundef @.str.75)
  store ptr null, ptr %4, align 8
  store i32 1, ptr %9, align 4
  br label %29

17:                                               ; preds = %3
  %18 = load ptr, ptr %7, align 8, !tbaa !96
  %19 = icmp eq ptr %18, null
  br i1 %19, label %20, label %23

20:                                               ; preds = %17
  %21 = load ptr, ptr %6, align 8, !tbaa !96
  %22 = call ptr @_Py_TYPE(ptr noundef %21)
  store ptr %22, ptr %7, align 8, !tbaa !96
  br label %23

23:                                               ; preds = %20, %17
  %24 = load ptr, ptr %8, align 8, !tbaa !4
  %25 = getelementptr inbounds nuw %struct.classmethod, ptr %24, i32 0, i32 1
  %26 = load ptr, ptr %25, align 8, !tbaa !157
  %27 = load ptr, ptr %7, align 8, !tbaa !96
  %28 = call ptr @PyMethod_New(ptr noundef %26, ptr noundef %27)
  store ptr %28, ptr %4, align 8
  store i32 1, ptr %9, align 4
  br label %29

29:                                               ; preds = %23, %15
  call void @llvm.lifetime.end.p0(i64 8, ptr %8) #6
  %30 = load ptr, ptr %4, align 8
  ret ptr %30
}