; Function Attrs: nounwind uwtable
define internal ptr @cm_descr_get(ptr noundef readonly captures(none) %0, ptr noundef readonly captures(none) %1, ptr noundef %2) #0 {
  %4 = getelementptr inbounds nuw i8, ptr %0, i64 16
  %5 = load ptr, ptr %4, align 8, !tbaa !156
  %6 = icmp eq ptr %5, null
  br i1 %6, label %7, label %9

7:                                                ; preds = %3
  %8 = load ptr, ptr @PyExc_RuntimeError, align 8, !tbaa !96
  tail call void @PyErr_SetString(ptr noundef %8, ptr noundef nonnull @.str.75) #8
  br label %15

9:                                                ; preds = %3
  %10 = icmp eq ptr %2, null
  br i1 %10, label %11, label %13

11:                                               ; preds = %9
  %12 = getelementptr i8, ptr %1, i64 8
  %.val = load ptr, ptr %12, align 8, !tbaa !130
  br label %13

13:                                               ; preds = %11, %9
  %.07 = phi ptr [ %.val, %11 ], [ %2, %9 ]
  %14 = tail call ptr @PyMethod_New(ptr noundef nonnull %5, ptr noundef %.07) #8
  br label %15

15:                                               ; preds = %13, %7
  %.0 = phi ptr [ null, %7 ], [ %14, %13 ]
  ret ptr %.0
}